; Function Attrs: mustprogress uwtable
define void @_ZN7rocksdb21OptimisticTransaction10InitializeERKNS_28OptimisticTransactionOptionsE(ptr noundef nonnull align 8 dereferenceable(328) %this, ptr nocapture noundef nonnull readonly align 8 dereferenceable(16) %txn_options) local_unnamed_addr #2 align 2 {
entry:
  %0 = load i8, ptr %txn_options, align 8
  %1 = and i8 %0, 1
  %tobool.not = icmp eq i8 %1, 0
  br i1 %tobool.not, label %if.end, label %if.then

if.then:                                          ; preds = %entry
  %vtable = load ptr, ptr %this, align 8
  %vfn = getelementptr inbounds i8, ptr %vtable, i64 16
  %2 = load ptr, ptr %vfn, align 8
  tail call void %2(ptr noundef nonnull align 8 dereferenceable(320) %this)
  br label %if.end

if.end:                                           ; preds = %if.then, %entry
  ret void
}